(dp0
S'OriginalConfig'
p1
ccopy_reg
_reconstructor
p2
(cWMCore.Configuration
Configuration
p3
c__builtin__
object
p4
Ntp5
Rp6
(dp7
S'Site'
p8
g2
(cWMCore.Configuration
ConfigSection
p9
g4
Ntp10
Rp11
(dp12
S'_internal_skipChecks'
p13
I00
sS'_internal_documentation'
p14
S''
p15
sS'_internal_settings'
p16
c__builtin__
set
p17
((lp18
S'storageSite'
p19
atp20
Rp21
sS'_internal_name'
p22
g8
sS'_internal_docstrings'
p23
(dp24
sS'_internal_children'
p25
g17
((lp26
tp27
Rp28
sg19
S'T2_IT_Bari'
p29
sS'_internal_parent_ref'
p30
NsbsS'_internal_sections'
p31
(lp32
S'General'
p33
aS'JobType'
p34
aS'Data'
p35
ag8
aS'User'
p36
aS'Debug'
p37
asg36
g2
(g9
g4
Ntp38
Rp39
(dp40
g13
I00
sg14
g15
sg16
g17
((lp41
tp42
Rp43
sg22
g36
sg23
(dp44
sg25
g17
((lp45
tp46
Rp47
sg30
Nsbsg37
g2
(g9
g4
Ntp48
Rp49
(dp50
g13
I00
sg14
g15
sg16
g17
((lp51
tp52
Rp53
sg22
g37
sg23
(dp54
sg25
g17
((lp55
tp56
Rp57
sg30
Nsbsg33
g2
(g9
g4
Ntp58
Rp59
(dp60
S'transferLogs'
p61
I01
sg13
I00
sg14
g15
sg16
g17
((lp62
g61
aS'transferOutputs'
p63
aS'workArea'
p64
aS'requestName'
p65
atp66
Rp67
sg22
g33
sg23
(dp68
sg63
I01
sg25
g17
((lp69
tp70
Rp71
sg65
S'TnP_ntuplizer_muon_Z_Run2018_AOD_DY_madgraph'
p72
sg30
Nsg64
S'TagProbe'
p73
sbsg35
g2
(g9
g4
Ntp74
Rp75
(dp76
S'inputDataset'
p77
S'/DYJetsToLL_M-50_TuneCP5_13TeV-madgraphMLM-pythia8/RunIISummer20UL18RECO-106X_upgrade2018_realistic_v11_L1v1-v1/AODSIM'
p78
sS'allowNonValidInputDataset'
p79
I01
sg13
I00
sS'unitsPerJob'
p80
I100
sg14
g15
sg16
g17
((lp81
g77
ag79
aS'publication'
p82
ag80
aS'splitting'
p83
aS'lumiMask'
p84
aS'outLFNDirBase'
p85
atp86
Rp87
sg22
g35
sg83
S'LumiBased'
p88
sg23
(dp89
sg25
g17
((lp90
tp91
Rp92
sg85
S'/store/user/bdanzi/TnP_ntuples/muon/Z/Run2018/AOD'
p93
sg30
Nsg84
g15
sg82
I00
sbsg34
g2
(g9
g4
Ntp94
Rp95
(dp96
S'numCores'
p97
I1
sg13
I00
sS'pyCfgParams'
p98
(lp99
S'resonance=Z'
p100
aS'isFullAOD=True'
p101
aS'isMC=True'
p102
aS'globalTag=106X_upgrade2018_realistic_v15_L1v1'
p103
aS'numThreads=1'
p104
aS'era=Run2018'
p105
aS'includeJets=False'
p106
aS'fromCRAB=True'
p107
asg14
g15
sg16
g17
((lp108
S'psetName'
p109
aS'pluginName'
p110
ag97
aS'allowUndistributedCMSSW'
p111
ag98
atp112
Rp113
sg22
g34
sg23
(dp114
sg110
S'Analysis'
p115
sg25
g17
((lp116
tp117
Rp118
sg111
I01
sg109
S'/afs/cern.ch/user/b/bdanzi/TRKPOG_last/CMSSW_10_6_18/src/MuonAnalysis/MuonAnalyzer/test/run_muonAnalyzer_cfg.py'
p119
sg30
NsbsbsS'voGroup'
p120
g15
sS'Server'
p121
S'cmsweb.cern.ch'
p122
sS'instance'
p123
S'prod'
p124
sS'RequestName'
p125
V220302_163402:bdanzi_crab_TnP_ntuplizer_muon_Z_Run2018_AOD_DY_madgraph
p126
sS'voRole'
p127
S'NULL'
p128
sS'Port'
p129
g15
s.