(dp0
S'OriginalConfig'
p1
ccopy_reg
_reconstructor
p2
(cWMCore.Configuration
Configuration
p3
c__builtin__
object
p4
Ntp5
Rp6
(dp7
S'Site'
p8
g2
(cWMCore.Configuration
ConfigSection
p9
g4
Ntp10
Rp11
(dp12
S'_internal_skipChecks'
p13
I00
sS'_internal_documentation'
p14
S''
p15
sS'_internal_settings'
p16
c__builtin__
set
p17
((lp18
S'storageSite'
p19
atp20
Rp21
sS'_internal_name'
p22
g8
sS'_internal_docstrings'
p23
(dp24
sS'_internal_children'
p25
g17
((lp26
tp27
Rp28
sg19
S'T2_IT_Bari'
p29
sS'_internal_parent_ref'
p30
NsbsS'_internal_sections'
p31
(lp32
S'General'
p33
aS'JobType'
p34
aS'Data'
p35
ag8
aS'User'
p36
aS'Debug'
p37
asg36
g2
(g9
g4
Ntp38
Rp39
(dp40
g13
I00
sg14
g15
sg16
g17
((lp41
tp42
Rp43
sg22
g36
sg23
(dp44
sg25
g17
((lp45
tp46
Rp47
sg30
Nsbsg37
g2
(g9
g4
Ntp48
Rp49
(dp50
g13
I00
sg14
g15
sg16
g17
((lp51
tp52
Rp53
sg22
g37
sg23
(dp54
sg25
g17
((lp55
tp56
Rp57
sg30
Nsbsg33
g2
(g9
g4
Ntp58
Rp59
(dp60
S'transferLogs'
p61
I01
sg13
I00
sg14
g15
sg16
g17
((lp62
g61
aS'transferOutputs'
p63
aS'workArea'
p64
aS'requestName'
p65
atp66
Rp67
sg22
g33
sg23
(dp68
sg63
I01
sg25
g17
((lp69
tp70
Rp71
sg65
S'TnP_ntuplizer_muon_Z_Run2018_AOD_Run2018D'
p72
sg30
Nsg64
S'TagProbe'
p73
sbsg35
g2
(g9
g4
Ntp74
Rp75
(dp76
S'inputDataset'
p77
S'/SingleMuon/Run2018D-12Nov2019_UL2018-v4/AOD'
p78
sS'allowNonValidInputDataset'
p79
I01
sg13
I00
sS'unitsPerJob'
p80
I100
sg14
g15
sg16
g17
((lp81
g77
ag79
aS'publication'
p82
ag80
aS'splitting'
p83
aS'lumiMask'
p84
aS'outLFNDirBase'
p85
atp86
Rp87
sg22
g35
sg83
S'LumiBased'
p88
sg23
(dp89
sg25
g17
((lp90
tp91
Rp92
sg85
S'/store/user/bdanzi/TnP_ntuples/muon/Z/Run2018/AOD'
p93
sg30
Nsg84
S'/afs/cern.ch/cms/CAF/CMSCOMM/COMM_DQM/certification/Collisions18/13TeV/ReReco/Cert_314472-325175_13TeV_17SeptEarlyReReco2018ABC_PromptEraD_Collisions18_JSON.txt'
p94
sg82
I00
sbsg34
g2
(g9
g4
Ntp95
Rp96
(dp97
S'numCores'
p98
I1
sg13
I00
sS'pyCfgParams'
p99
(lp100
S'resonance=Z'
p101
aS'isFullAOD=True'
p102
aS'isMC=False'
p103
aS'globalTag=106X_dataRun2_v32'
p104
aS'numThreads=1'
p105
aS'era=Run2018'
p106
aS'includeJets=False'
p107
aS'fromCRAB=True'
p108
asg14
g15
sg16
g17
((lp109
S'psetName'
p110
aS'pluginName'
p111
ag98
aS'allowUndistributedCMSSW'
p112
ag99
atp113
Rp114
sg22
g34
sg23
(dp115
sg111
S'Analysis'
p116
sg25
g17
((lp117
tp118
Rp119
sg112
I01
sg110
S'/afs/cern.ch/user/b/bdanzi/TRKPOG_last/CMSSW_10_6_18/src/MuonAnalysis/MuonAnalyzer/test/run_muonAnalyzer_cfg.py'
p120
sg30
NsbsbsS'voGroup'
p121
g15
sS'Server'
p122
S'cmsweb.cern.ch'
p123
sS'instance'
p124
S'prod'
p125
sS'RequestName'
p126
V220302_163309:bdanzi_crab_TnP_ntuplizer_muon_Z_Run2018_AOD_Run2018D
p127
sS'voRole'
p128
S'NULL'
p129
sS'Port'
p130
g15
s.